target datalayout = "e-m:e-p270:32:32-p271:32:32-p272:64:64-i64:64-i128:128-f80:128-n8:16:32:64-S128"
target triple = "x86_64-pc-linux-gnu"

%union.pthread_mutex_t = type { %struct.__pthread_mutex_s }
%struct.__pthread_mutex_s = type { i32, i32, i32, i32, i32, i16, i16, %struct.__pthread_internal_list }
%struct.__pthread_internal_list = type { ptr, ptr }

@g_mutex = global %union.pthread_mutex_t zeroinitializer, align 8
@g_fAbstractionProved = internal global i32 0, align 4

; Function Attrs: nounwind uwtable
define i32 @Gia_GlaProveCheck(i32 noundef %0) #0 {
  %2 = alloca i32, align 4
  %3 = alloca i32, align 4
  %4 = alloca i32, align 4
  %5 = alloca i32, align 4
  store i32 %0, ptr %3, align 4, !tbaa !3
  call void @llvm.lifetime.start.p0(i64 4, ptr %4) #10
  %6 = load volatile i32, ptr @g_fAbstractionProved, align 4, !tbaa !3
  %7 = icmp eq i32 %6, 0
  br i1 %7, label %8, label %9

8:                                                ; preds = %1
  store i32 0, ptr %2, align 4
  store i32 1, ptr %5, align 4
  br label %12

9:                                                ; preds = %1
  %10 = call i32 @pthread_mutex_lock(ptr noundef @g_mutex) #10
  store i32 %10, ptr %4, align 4, !tbaa !3
  store volatile i32 0, ptr @g_fAbstractionProved, align 4, !tbaa !3
  %11 = call i32 @pthread_mutex_unlock(ptr noundef @g_mutex) #10
  store i32 %11, ptr %4, align 4, !tbaa !3
  store i32 1, ptr %2, align 4
  store i32 1, ptr %5, align 4
  br label %12

12:                                               ; preds = %9, %8
  call void @llvm.lifetime.end.p0(i64 4, ptr %4) #10
  %13 = load i32, ptr %2, align 4
  ret i32 %13
}