; Function Attrs: nounwind uwtable
define range(i32 0, 2) i32 @Gia_GlaProveCheck(i32 noundef %0) local_unnamed_addr #1 {
  %2 = load volatile i32, ptr @g_fAbstractionProved, align 4, !tbaa !3
  %3 = icmp eq i32 %2, 0
  br i1 %3, label %7, label %4

4:                                                ; preds = %1
  %5 = tail call i32 @pthread_mutex_lock(ptr noundef nonnull @g_mutex) #13
  store volatile i32 0, ptr @g_fAbstractionProved, align 4, !tbaa !3
  %6 = tail call i32 @pthread_mutex_unlock(ptr noundef nonnull @g_mutex) #13
  br label %7

7:                                                ; preds = %1, %4
  %.0 = phi i32 [ 1, %4 ], [ 0, %1 ]
  ret i32 %.0
}